target datalayout = "e-m:e-p270:32:32-p271:32:32-p272:64:64-i64:64-i128:128-f80:128-n8:16:32:64-S128"
target triple = "x86_64-pc-linux-gnu"

%struct.SwsInternal = type { %struct.SwsContext, ptr, ptr, ptr, ptr, i32, [2 x ptr], i32, i32, ptr, i32, i32, i32, i32, i32, i32, i32, i32, i32, i32, i32, i32, i32, i32, i32, i32, i32, i32, ptr, ptr, %struct.RangeList, [3 x ptr], [2 x [4 x i32]], [2 x [4 x ptr]], i32, double, i32, ptr, ptr, i32, [2 x i32], i32, ptr, ptr, [256 x i32], [256 x i32], [256 x float], i32, i32, ptr, i32, ptr, ptr, ptr, ptr, ptr, ptr, ptr, ptr, i32, i32, i32, i32, i32, i32, ptr, ptr, i32, i32, i32, ptr, [8 x i8], [1280 x i32], [1280 x ptr], [1280 x ptr], [1280 x ptr], [176 x i32], [4 x ptr], i32, i32, i32, [4 x i32], [4 x i32], i32, i32, i32, i32, i32, i32, i32, i32, i32, i32, i64, i64, i64, i64, i64, i64, i64, i64, i64, i64, i64, [1024 x i32], [1024 x i32], i32, i64, i64, i64, i64, i64, [1024 x i32], i64, i64, [8 x i16], [8 x i32], ptr, ptr, i32, ptr, ptr, ptr, ptr, [3 x [4 x i16]], [3 x [4 x i16]], ptr, ptr, ptr, ptr, ptr, ptr, ptr, ptr, ptr, ptr, ptr, ptr, ptr, ptr, ptr, ptr, ptr, ptr, ptr, ptr, i32, i32, i64, i64, i32, ptr, i32, ptr, i32, i32, i32, i32, i32, ptr }
%struct.SwsContext = type { ptr, ptr, i32, [2 x double], i32, i32, i32, i32, i32, i32, i32, i32, i32, i32, i32, i32, i32, i32, i32, i32, i32 }
%struct.RangeList = type { ptr, i32, i32 }

@deinterleaveBytes = external global ptr, align 8

; Function Attrs: nounwind uwtable
define void @ff_copyPlane(ptr noundef %0, i32 noundef %1, i32 noundef %2, i32 noundef %3, i32 noundef %4, ptr noundef %5, i32 noundef %6) #0 {
  %8 = alloca ptr, align 8
  %9 = alloca i32, align 4
  %10 = alloca i32, align 4
  %11 = alloca i32, align 4
  %12 = alloca i32, align 4
  %13 = alloca ptr, align 8
  %14 = alloca i32, align 4
  %15 = alloca i32, align 4
  store ptr %0, ptr %8, align 8, !tbaa !4
  store i32 %1, ptr %9, align 4, !tbaa !9
  store i32 %2, ptr %10, align 4, !tbaa !9
  store i32 %3, ptr %11, align 4, !tbaa !9
  store i32 %4, ptr %12, align 4, !tbaa !9
  store ptr %5, ptr %13, align 8, !tbaa !4
  store i32 %6, ptr %14, align 4, !tbaa !9
  %16 = load i32, ptr %14, align 4, !tbaa !9
  %17 = load i32, ptr %10, align 4, !tbaa !9
  %18 = mul nsw i32 %16, %17
  %19 = load ptr, ptr %13, align 8, !tbaa !4
  %20 = sext i32 %18 to i64
  %21 = getelementptr inbounds i8, ptr %19, i64 %20
  store ptr %21, ptr %13, align 8, !tbaa !4
  %22 = load i32, ptr %14, align 4, !tbaa !9
  %23 = load i32, ptr %9, align 4, !tbaa !9
  %24 = icmp eq i32 %22, %23
  br i1 %24, label %25, label %35

25:                                               ; preds = %7
  %26 = load i32, ptr %9, align 4, !tbaa !9
  %27 = icmp sgt i32 %26, 0
  br i1 %27, label %28, label %35

28:                                               ; preds = %25
  %29 = load ptr, ptr %13, align 8, !tbaa !4
  %30 = load ptr, ptr %8, align 8, !tbaa !4
  %31 = load i32, ptr %11, align 4, !tbaa !9
  %32 = load i32, ptr %14, align 4, !tbaa !9
  %33 = mul nsw i32 %31, %32
  %34 = sext i32 %33 to i64
  call void @llvm.memcpy.p0.p0.i64(ptr align 1 %29, ptr align 1 %30, i64 %34, i1 false)
  br label %57

35:                                               ; preds = %25, %7
  call void @llvm.lifetime.start.p0(i64 4, ptr %15) #11
  store i32 0, ptr %15, align 4, !tbaa !9
  br label %36

36:                                               ; preds = %53, %35
  %37 = load i32, ptr %15, align 4, !tbaa !9
  %38 = load i32, ptr %11, align 4, !tbaa !9
  %39 = icmp slt i32 %37, %38
  br i1 %39, label %40, label %56

40:                                               ; preds = %36
  %41 = load ptr, ptr %13, align 8, !tbaa !4
  %42 = load ptr, ptr %8, align 8, !tbaa !4
  %43 = load i32, ptr %12, align 4, !tbaa !9
  %44 = sext i32 %43 to i64
  call void @llvm.memcpy.p0.p0.i64(ptr align 1 %41, ptr align 1 %42, i64 %44, i1 false)
  %45 = load i32, ptr %9, align 4, !tbaa !9
  %46 = load ptr, ptr %8, align 8, !tbaa !4
  %47 = sext i32 %45 to i64
  %48 = getelementptr inbounds i8, ptr %46, i64 %47
  store ptr %48, ptr %8, align 8, !tbaa !4
  %49 = load i32, ptr %14, align 4, !tbaa !9
  %50 = load ptr, ptr %13, align 8, !tbaa !4
  %51 = sext i32 %49 to i64
  %52 = getelementptr inbounds i8, ptr %50, i64 %51
  store ptr %52, ptr %13, align 8, !tbaa !4
  br label %53

53:                                               ; preds = %40
  %54 = load i32, ptr %15, align 4, !tbaa !9
  %55 = add nsw i32 %54, 1
  store i32 %55, ptr %15, align 4, !tbaa !9
  br label %36, !llvm.loop !11

56:                                               ; preds = %36
  call void @llvm.lifetime.end.p0(i64 4, ptr %15) #11
  br label %57

57:                                               ; preds = %56, %28
  ret void
}

; Function Attrs: nounwind uwtable
define internal i32 @nv12ToPlanarWrapper(ptr noundef %0, ptr noundef %1, ptr noundef %2, i32 noundef %3, i32 noundef %4, ptr noundef %5, ptr noundef %6) #0 {
  %8 = alloca ptr, align 8
  %9 = alloca ptr, align 8
  %10 = alloca ptr, align 8
  %11 = alloca i32, align 4
  %12 = alloca i32, align 4
  %13 = alloca ptr, align 8
  %14 = alloca ptr, align 8
  %15 = alloca ptr, align 8
  %16 = alloca ptr, align 8
  store ptr %0, ptr %8, align 8, !tbaa !13
  store ptr %1, ptr %9, align 8, !tbaa !52
  store ptr %2, ptr %10, align 8, !tbaa !54
  store i32 %3, ptr %11, align 4, !tbaa !9
  store i32 %4, ptr %12, align 4, !tbaa !9
  store ptr %5, ptr %13, align 8, !tbaa !52
  store ptr %6, ptr %14, align 8, !tbaa !54
  call void @llvm.lifetime.start.p0(i64 8, ptr %15) #11
  %17 = load ptr, ptr %13, align 8, !tbaa !52
  %18 = getelementptr inbounds ptr, ptr %17, i64 1
  %19 = load ptr, ptr %18, align 8, !tbaa !4
  %20 = load ptr, ptr %14, align 8, !tbaa !54
  %21 = getelementptr inbounds i32, ptr %20, i64 1
  %22 = load i32, ptr %21, align 4, !tbaa !9
  %23 = load i32, ptr %11, align 4, !tbaa !9
  %24 = mul nsw i32 %22, %23
  %25 = sdiv i32 %24, 2
  %26 = sext i32 %25 to i64
  %27 = getelementptr inbounds i8, ptr %19, i64 %26
  store ptr %27, ptr %15, align 8, !tbaa !4
  call void @llvm.lifetime.start.p0(i64 8, ptr %16) #11
  %28 = load ptr, ptr %13, align 8, !tbaa !52
  %29 = getelementptr inbounds ptr, ptr %28, i64 2
  %30 = load ptr, ptr %29, align 8, !tbaa !4
  %31 = load ptr, ptr %14, align 8, !tbaa !54
  %32 = getelementptr inbounds i32, ptr %31, i64 2
  %33 = load i32, ptr %32, align 4, !tbaa !9
  %34 = load i32, ptr %11, align 4, !tbaa !9
  %35 = mul nsw i32 %33, %34
  %36 = sdiv i32 %35, 2
  %37 = sext i32 %36 to i64
  %38 = getelementptr inbounds i8, ptr %30, i64 %37
  store ptr %38, ptr %16, align 8, !tbaa !4
  %39 = load ptr, ptr %9, align 8, !tbaa !52
  %40 = getelementptr inbounds ptr, ptr %39, i64 0
  %41 = load ptr, ptr %40, align 8, !tbaa !4
  %42 = load ptr, ptr %10, align 8, !tbaa !54
  %43 = getelementptr inbounds i32, ptr %42, i64 0
  %44 = load i32, ptr %43, align 4, !tbaa !9
  %45 = load i32, ptr %11, align 4, !tbaa !9
  %46 = load i32, ptr %12, align 4, !tbaa !9
  %47 = load ptr, ptr %8, align 8, !tbaa !13
  %48 = getelementptr inbounds nuw %struct.SwsInternal, ptr %47, i32 0, i32 0
  %49 = getelementptr inbounds nuw %struct.SwsContext, ptr %48, i32 0, i32 8
  %50 = load i32, ptr %49, align 8, !tbaa !55
  %51 = load ptr, ptr %13, align 8, !tbaa !52
  %52 = getelementptr inbounds ptr, ptr %51, i64 0
  %53 = load ptr, ptr %52, align 8, !tbaa !4
  %54 = load ptr, ptr %14, align 8, !tbaa !54
  %55 = getelementptr inbounds i32, ptr %54, i64 0
  %56 = load i32, ptr %55, align 4, !tbaa !9
  call void @ff_copyPlane(ptr noundef %41, i32 noundef %44, i32 noundef %45, i32 noundef %46, i32 noundef %50, ptr noundef %53, i32 noundef %56)
  %57 = load ptr, ptr %8, align 8, !tbaa !13
  %58 = getelementptr inbounds nuw %struct.SwsInternal, ptr %57, i32 0, i32 0
  %59 = getelementptr inbounds nuw %struct.SwsContext, ptr %58, i32 0, i32 12
  %60 = load i32, ptr %59, align 8, !tbaa !15
  %61 = icmp eq i32 %60, 23
  br i1 %61, label %62, label %84

62:                                               ; preds = %7
  %63 = load ptr, ptr @deinterleaveBytes, align 8, !tbaa !56
  %64 = load ptr, ptr %9, align 8, !tbaa !52
  %65 = getelementptr inbounds ptr, ptr %64, i64 1
  %66 = load ptr, ptr %65, align 8, !tbaa !4
  %67 = load ptr, ptr %15, align 8, !tbaa !4
  %68 = load ptr, ptr %16, align 8, !tbaa !4
  %69 = load ptr, ptr %8, align 8, !tbaa !13
  %70 = getelementptr inbounds nuw %struct.SwsInternal, ptr %69, i32 0, i32 10
  %71 = load i32, ptr %70, align 8, !tbaa !57
  %72 = load i32, ptr %12, align 4, !tbaa !9
  %73 = add nsw i32 %72, 1
  %74 = sdiv i32 %73, 2
  %75 = load ptr, ptr %10, align 8, !tbaa !54
  %76 = getelementptr inbounds i32, ptr %75, i64 1
  %77 = load i32, ptr %76, align 4, !tbaa !9
  %78 = load ptr, ptr %14, align 8, !tbaa !54
  %79 = getelementptr inbounds i32, ptr %78, i64 1
  %80 = load i32, ptr %79, align 4, !tbaa !9
  %81 = load ptr, ptr %14, align 8, !tbaa !54
  %82 = getelementptr inbounds i32, ptr %81, i64 2
  %83 = load i32, ptr %82, align 4, !tbaa !9
  call void %63(ptr noundef %66, ptr noundef %67, ptr noundef %68, i32 noundef %71, i32 noundef %74, i32 noundef %77, i32 noundef %80, i32 noundef %83)
  br label %106

84:                                               ; preds = %7
  %85 = load ptr, ptr @deinterleaveBytes, align 8, !tbaa !56
  %86 = load ptr, ptr %9, align 8, !tbaa !52
  %87 = getelementptr inbounds ptr, ptr %86, i64 1
  %88 = load ptr, ptr %87, align 8, !tbaa !4
  %89 = load ptr, ptr %16, align 8, !tbaa !4
  %90 = load ptr, ptr %15, align 8, !tbaa !4
  %91 = load ptr, ptr %8, align 8, !tbaa !13
  %92 = getelementptr inbounds nuw %struct.SwsInternal, ptr %91, i32 0, i32 10
  %93 = load i32, ptr %92, align 8, !tbaa !57
  %94 = load i32, ptr %12, align 4, !tbaa !9
  %95 = add nsw i32 %94, 1
  %96 = sdiv i32 %95, 2
  %97 = load ptr, ptr %10, align 8, !tbaa !54
  %98 = getelementptr inbounds i32, ptr %97, i64 1
  %99 = load i32, ptr %98, align 4, !tbaa !9
  %100 = load ptr, ptr %14, align 8, !tbaa !54
  %101 = getelementptr inbounds i32, ptr %100, i64 2
  %102 = load i32, ptr %101, align 4, !tbaa !9
  %103 = load ptr, ptr %14, align 8, !tbaa !54
  %104 = getelementptr inbounds i32, ptr %103, i64 1
  %105 = load i32, ptr %104, align 4, !tbaa !9
  call void %85(ptr noundef %88, ptr noundef %89, ptr noundef %90, i32 noundef %93, i32 noundef %96, i32 noundef %99, i32 noundef %102, i32 noundef %105)
  br label %106

106:                                              ; preds = %84, %62
  %107 = load i32, ptr %12, align 4, !tbaa !9
  call void @llvm.lifetime.end.p0(i64 8, ptr %16) #11
  call void @llvm.lifetime.end.p0(i64 8, ptr %15) #11
  ret i32 %107
}