; Function Attrs: nounwind uwtable
define internal noundef i32 @nv12ToPlanarWrapper(ptr noundef readonly captures(none) %0, ptr noundef readonly captures(none) %1, ptr noundef readonly captures(none) %2, i32 noundef %3, i32 noundef returned %4, ptr noundef readonly captures(none) %5, ptr noundef readonly captures(none) %6) #3 {
  %8 = getelementptr inbounds nuw i8, ptr %5, i64 8
  %9 = load ptr, ptr %8, align 8, !tbaa !49
  %10 = getelementptr inbounds nuw i8, ptr %6, i64 4
  %11 = load i32, ptr %10, align 4, !tbaa !48
  %12 = mul nsw i32 %11, %3
  %13 = sdiv i32 %12, 2
  %14 = sext i32 %13 to i64
  %15 = getelementptr inbounds i8, ptr %9, i64 %14
  %16 = getelementptr inbounds nuw i8, ptr %5, i64 16
  %17 = load ptr, ptr %16, align 8, !tbaa !49
  %18 = getelementptr inbounds nuw i8, ptr %6, i64 8
  %19 = load i32, ptr %18, align 4, !tbaa !48
  %20 = mul nsw i32 %19, %3
  %21 = sdiv i32 %20, 2
  %22 = sext i32 %21 to i64
  %23 = getelementptr inbounds i8, ptr %17, i64 %22
  %24 = load ptr, ptr %1, align 8, !tbaa !49
  %25 = load i32, ptr %2, align 4, !tbaa !48
  %26 = getelementptr inbounds nuw i8, ptr %0, i64 56
  %27 = load i32, ptr %26, align 8, !tbaa !50
  %28 = load ptr, ptr %5, align 8, !tbaa !49
  %29 = load i32, ptr %6, align 4, !tbaa !48
  %30 = mul nsw i32 %29, %3
  %31 = sext i32 %30 to i64
  %32 = getelementptr inbounds i8, ptr %28, i64 %31
  %33 = icmp eq i32 %29, %25
  %34 = icmp sgt i32 %25, 0
  %or.cond.i = and i1 %34, %33
  br i1 %or.cond.i, label %39, label %.preheader.i

.preheader.i:                                     ; preds = %7
  %35 = icmp sgt i32 %4, 0
  br i1 %35, label %.lr.ph.i, label %ff_copyPlane.exit

.lr.ph.i:                                         ; preds = %.preheader.i
  %36 = sext i32 %27 to i64
  %37 = sext i32 %25 to i64
  %38 = sext i32 %29 to i64
  br label %42

39:                                               ; preds = %7
  %40 = mul nsw i32 %25, %4
  %41 = sext i32 %40 to i64
  tail call void @llvm.memcpy.p0.p0.i64(ptr align 1 %32, ptr readonly align 1 %24, i64 %41, i1 false)
  br label %ff_copyPlane.exit

42:                                               ; preds = %42, %.lr.ph.i
  %.025.i = phi i32 [ 0, %.lr.ph.i ], [ %45, %42 ]
  %.02024.i = phi ptr [ %24, %.lr.ph.i ], [ %43, %42 ]
  %.02123.i = phi ptr [ %32, %.lr.ph.i ], [ %44, %42 ]
  tail call void @llvm.memcpy.p0.p0.i64(ptr align 1 %.02123.i, ptr align 1 %.02024.i, i64 %36, i1 false)
  %43 = getelementptr inbounds i8, ptr %.02024.i, i64 %37
  %44 = getelementptr inbounds i8, ptr %.02123.i, i64 %38
  %45 = add nuw nsw i32 %.025.i, 1
  %exitcond.not.i = icmp eq i32 %45, %4
  br i1 %exitcond.not.i, label %ff_copyPlane.exit, label %42, !llvm.loop !4

ff_copyPlane.exit:                                ; preds = %42, %.preheader.i, %39
  %46 = getelementptr inbounds nuw i8, ptr %0, i64 72
  %47 = load i32, ptr %46, align 8, !tbaa !6
  %48 = icmp eq i32 %47, 23
  %49 = load ptr, ptr @deinterleaveBytes, align 8, !tbaa !51
  %50 = getelementptr inbounds nuw i8, ptr %1, i64 8
  %51 = load ptr, ptr %50, align 8, !tbaa !49
  %52 = getelementptr inbounds nuw i8, ptr %0, i64 184
  %53 = load i32, ptr %52, align 8, !tbaa !52
  %54 = add nsw i32 %4, 1
  %55 = sdiv i32 %54, 2
  %56 = getelementptr inbounds nuw i8, ptr %2, i64 4
  %57 = load i32, ptr %56, align 4, !tbaa !48
  br i1 %48, label %58, label %61

58:                                               ; preds = %ff_copyPlane.exit
  %59 = load i32, ptr %10, align 4, !tbaa !48
  %60 = load i32, ptr %18, align 4, !tbaa !48
  tail call void %49(ptr noundef %51, ptr noundef %15, ptr noundef %23, i32 noundef %53, i32 noundef %55, i32 noundef %57, i32 noundef %59, i32 noundef %60) #13
  br label %64

61:                                               ; preds = %ff_copyPlane.exit
  %62 = load i32, ptr %18, align 4, !tbaa !48
  %63 = load i32, ptr %10, align 4, !tbaa !48
  tail call void %49(ptr noundef %51, ptr noundef %23, ptr noundef %15, i32 noundef %53, i32 noundef %55, i32 noundef %57, i32 noundef %62, i32 noundef %63) #13
  br label %64

64:                                               ; preds = %61, %58
  ret i32 %4
}